; Function Attrs: mustprogress noreturn uwtable
define hidden void @_Z15throw_exceptionv() local_unnamed_addr #4 personality ptr @__gxx_personality_v0 {
  %1 = tail call ptr @__cxa_allocate_exception(i64 16) #26
  invoke void @_ZNSt13runtime_errorC1EPKc(ptr noundef nonnull align 8 dereferenceable(16) %1, ptr noundef nonnull @.str)
          to label %2 unwind label %3

2:                                                ; preds = %0
  tail call void @__cxa_throw(ptr nonnull %1, ptr nonnull @_ZTISt13runtime_error, ptr nonnull @_ZNSt13runtime_errorD1Ev) #27
  unreachable

3:                                                ; preds = %0
  %4 = landingpad { ptr, i32 }
          cleanup
  tail call void @__cxa_free_exception(ptr nonnull %1) #26
  resume { ptr, i32 } %4
}